; Function Attrs: nounwind sspstrong uwtable
define internal noundef i64 @ossl_pkcs7_set_certs_i(i64 noundef %0, i64 noundef returned %1, i32 %2, ptr readnone captures(none) %3, i64 %4) #0 {
  %6 = tail call ptr @rb_check_typeddata(i64 noundef %1, ptr noundef nonnull @ossl_pkcs7_type) #5
  %.not.i = icmp eq ptr %6, null
  br i1 %.not.i, label %7, label %9

7:                                                ; preds = %5
  %8 = load i64, ptr @rb_eRuntimeError, align 8, !tbaa !6
  tail call void (i64, ptr, ...) @ossl_raise(i64 noundef %8, ptr noundef nonnull @.str.1) #6
  unreachable

9:                                                ; preds = %5
  %10 = tail call ptr @GetX509CertPtr(i64 noundef %0) #5
  %11 = tail call i32 @PKCS7_add_certificate(ptr noundef nonnull %6, ptr noundef %10) #5
  %.not5.i = icmp eq i32 %11, 0
  br i1 %.not5.i, label %12, label %ossl_pkcs7_add_certificate.exit

12:                                               ; preds = %9
  %13 = load i64, ptr @ePKCS7Error, align 8, !tbaa !6
  tail call void (i64, ptr, ...) @ossl_raise(i64 noundef %13, ptr noundef null) #6
  unreachable

ossl_pkcs7_add_certificate.exit:                  ; preds = %9
  ret i64 %1
}